; Function Attrs: mustprogress nounwind uwtable
define hidden noundef nonnull align 8 dereferenceable(16) ptr @_ZN18constantPoolHandleaSERKS_(ptr noundef nonnull returned align 8 dereferenceable(16) %0, ptr nocapture noundef nonnull readonly align 8 dereferenceable(16) %1) local_unnamed_addr #0 align 2 {
  %3 = load ptr, ptr %0, align 8
  %.not.i = icmp eq ptr %3, null
  br i1 %.not.i, label %_ZN18constantPoolHandle6removeEv.exit, label %4

4:                                                ; preds = %2
  %5 = getelementptr inbounds i8, ptr %0, i64 8
  %6 = load ptr, ptr %5, align 8
  %7 = getelementptr inbounds i8, ptr %6, i64 816
  %8 = load ptr, ptr %7, align 8
  %9 = load i32, ptr %8, align 8
  %10 = getelementptr inbounds i8, ptr %8, i64 8
  %11 = load ptr, ptr %10, align 8
  %12 = zext i32 %9 to i64
  br label %13

13:                                               ; preds = %16, %4
  %indvars.iv.i.i = phi i64 [ %indvars.iv.next.i.i, %16 ], [ %12, %4 ]
  %14 = trunc nuw i64 %indvars.iv.i.i to i32
  %15 = icmp sgt i32 %14, 0
  br i1 %15, label %16, label %_ZNK17GrowableArrayViewIP8MetadataE13find_from_endERKS1_.exit.i

16:                                               ; preds = %13
  %indvars.iv.next.i.i = add nsw i64 %indvars.iv.i.i, -1
  %17 = and i64 %indvars.iv.next.i.i, 4294967295
  %18 = getelementptr inbounds ptr, ptr %11, i64 %17
  %19 = load ptr, ptr %18, align 8
  %20 = icmp eq ptr %19, %3
  br i1 %20, label %.split.loop.exit8.i.i, label %13, !llvm.loop !6

.split.loop.exit8.i.i:                            ; preds = %16
  %indvars.le.i.i = trunc i64 %indvars.iv.next.i.i to i32
  br label %_ZNK17GrowableArrayViewIP8MetadataE13find_from_endERKS1_.exit.i

_ZNK17GrowableArrayViewIP8MetadataE13find_from_endERKS1_.exit.i: ; preds = %13, %.split.loop.exit8.i.i
  %.06.i.i = phi i32 [ %indvars.le.i.i, %.split.loop.exit8.i.i ], [ -1, %13 ]
  %.06.i1.i = add nsw i32 %.06.i.i, 1
  %21 = icmp slt i32 %.06.i1.i, %9
  br i1 %21, label %.lr.ph.i.i, label %_ZN17GrowableArrayViewIP8MetadataE9remove_atEi.exit.i

.lr.ph.i.i:                                       ; preds = %_ZNK17GrowableArrayViewIP8MetadataE13find_from_endERKS1_.exit.i
  %22 = sext i32 %.06.i.i to i64
  %23 = add nsw i64 %22, 1
  br label %24

24:                                               ; preds = %24, %.lr.ph.i.i
  %indvars.iv10.i.i = phi i64 [ %22, %.lr.ph.i.i ], [ %indvars.iv.next11.i.i, %24 ]
  %indvars.iv.i2.i = phi i64 [ %23, %.lr.ph.i.i ], [ %indvars.iv.next.i3.i, %24 ]
  %25 = load ptr, ptr %10, align 8
  %26 = getelementptr inbounds ptr, ptr %25, i64 %indvars.iv.i2.i
  %27 = load ptr, ptr %26, align 8
  %28 = getelementptr inbounds ptr, ptr %25, i64 %indvars.iv10.i.i
  store ptr %27, ptr %28, align 8
  %indvars.iv.next.i3.i = add nuw nsw i64 %indvars.iv.i2.i, 1
  %29 = load i32, ptr %8, align 8
  %30 = sext i32 %29 to i64
  %31 = icmp slt i64 %indvars.iv.next.i3.i, %30
  %indvars.iv.next11.i.i = add nsw i64 %indvars.iv10.i.i, 1
  br i1 %31, label %24, label %_ZN17GrowableArrayViewIP8MetadataE9remove_atEi.exit.i, !llvm.loop !8

_ZN17GrowableArrayViewIP8MetadataE9remove_atEi.exit.i: ; preds = %24, %_ZNK17GrowableArrayViewIP8MetadataE13find_from_endERKS1_.exit.i
  %.lcssa.i.i = phi i32 [ %9, %_ZNK17GrowableArrayViewIP8MetadataE13find_from_endERKS1_.exit.i ], [ %29, %24 ]
  %32 = add nsw i32 %.lcssa.i.i, -1
  store i32 %32, ptr %8, align 8
  br label %_ZN18constantPoolHandle6removeEv.exit

_ZN18constantPoolHandle6removeEv.exit:            ; preds = %2, %_ZN17GrowableArrayViewIP8MetadataE9remove_atEi.exit.i
  %33 = load ptr, ptr %1, align 8
  store ptr %33, ptr %0, align 8
  %.not = icmp eq ptr %33, null
  br i1 %.not, label %62, label %34

34:                                               ; preds = %_ZN18constantPoolHandle6removeEv.exit
  %35 = getelementptr inbounds i8, ptr %1, i64 8
  %36 = load ptr, ptr %35, align 8
  %.not4 = icmp eq ptr %36, null
  %37 = tail call align 8 ptr @llvm.threadlocal.address.p0(ptr align 8 @_ZN6Thread12_thr_currentE)
  %38 = load ptr, ptr %37, align 8
  %.sink = select i1 %.not4, ptr %38, ptr %36
  %39 = getelementptr inbounds i8, ptr %0, i64 8
  store ptr %.sink, ptr %39, align 8
  %40 = getelementptr inbounds i8, ptr %.sink, i64 816
  %41 = load ptr, ptr %40, align 8
  %42 = load i32, ptr %41, align 8
  %43 = getelementptr inbounds i8, ptr %41, i64 4
  %44 = load i32, ptr %43, align 4
  %45 = icmp eq i32 %42, %44
  br i1 %45, label %46, label %_ZN26GrowableArrayWithAllocatorIP8Metadata13GrowableArrayIS1_EE4pushERKS1_.exit

46:                                               ; preds = %34
  %47 = add nsw i32 %42, 1
  %48 = icmp sgt i32 %42, -1
  %49 = xor i32 %42, -2147483648
  %50 = and i32 %49, %47
  %51 = icmp eq i32 %50, 0
  %52 = and i1 %48, %51
  %53 = tail call range(i32 0, 33) i32 @llvm.ctlz.i32(i32 %47, i1 true)
  %54 = sub nuw nsw i32 32, %53
  %55 = shl nuw i32 1, %54
  %.0.i.i.i.i.i = select i1 %52, i32 %47, i32 %55
  tail call void @_ZN26GrowableArrayWithAllocatorIP8Metadata13GrowableArrayIS1_EE9expand_toEi(ptr noundef nonnull align 8 dereferenceable(16) %41, i32 noundef %.0.i.i.i.i.i)
  %.pre.i.i = load i32, ptr %41, align 8
  br label %_ZN26GrowableArrayWithAllocatorIP8Metadata13GrowableArrayIS1_EE4pushERKS1_.exit

_ZN26GrowableArrayWithAllocatorIP8Metadata13GrowableArrayIS1_EE4pushERKS1_.exit: ; preds = %34, %46
  %56 = phi i32 [ %.pre.i.i, %46 ], [ %42, %34 ]
  %57 = add nsw i32 %56, 1
  store i32 %57, ptr %41, align 8
  %58 = getelementptr inbounds i8, ptr %41, i64 8
  %59 = load ptr, ptr %58, align 8
  %60 = sext i32 %56 to i64
  %61 = getelementptr inbounds ptr, ptr %59, i64 %60
  store ptr %33, ptr %61, align 8
  br label %64

62:                                               ; preds = %_ZN18constantPoolHandle6removeEv.exit
  %63 = getelementptr inbounds i8, ptr %0, i64 8
  store ptr null, ptr %63, align 8
  br label %64

64:                                               ; preds = %62, %_ZN26GrowableArrayWithAllocatorIP8Metadata13GrowableArrayIS1_EE4pushERKS1_.exit
  ret ptr %0
}